; Function Attrs: nounwind uwtable
define dso_local noundef zeroext i1 @RI_FKey_pk_upd_check_required(ptr noundef readonly captures(none) %0, ptr noundef %1, ptr noundef %2, ptr noundef %3) local_unnamed_addr #0 {
  %5 = tail call fastcc ptr @ri_FetchConstraintInfo(ptr noundef %0, ptr noundef %1, i1 noundef zeroext true)
  %6 = getelementptr inbounds nuw i8, ptr %5, i64 168
  %7 = load i32, ptr %6, align 8
  %8 = icmp sgt i32 %7, 0
  br i1 %8, label %.lr.ph.i, label %ri_NullCheck.exit.thread

.lr.ph.i:                                         ; preds = %4
  %9 = getelementptr inbounds nuw i8, ptr %5, i64 172
  %10 = getelementptr inbounds nuw i8, ptr %2, i64 6
  %11 = getelementptr inbounds nuw i8, ptr %2, i64 32
  br label %12

._crit_edge.loopexit.i:                           ; preds = %slot_attisnull.exit.i
  br i1 %26, label %29, label %ri_NullCheck.exit.thread

12:                                               ; preds = %slot_attisnull.exit.i, %.lr.ph.i
  %13 = phi i32 [ %7, %.lr.ph.i ], [ %19, %slot_attisnull.exit.i ]
  %indvars.iv.i = phi i64 [ 0, %.lr.ph.i ], [ %indvars.iv.next.i, %slot_attisnull.exit.i ]
  %.0112.i = phi i1 [ true, %.lr.ph.i ], [ %26, %slot_attisnull.exit.i ]
  %14 = getelementptr inbounds nuw i16, ptr %9, i64 %indvars.iv.i
  %15 = load i16, ptr %14, align 2
  %16 = load i16, ptr %10, align 2
  %17 = icmp sgt i16 %15, %16
  br i1 %17, label %slot_getsomeattrs.exit.i.i, label %slot_attisnull.exit.i

slot_getsomeattrs.exit.i.i:                       ; preds = %12
  %18 = sext i16 %15 to i32
  tail call void @slot_getsomeattrs_int(ptr noundef nonnull %2, i32 noundef range(i32 -32767, 32768) %18) #11
  %.pre.i = load i32, ptr %6, align 8
  br label %slot_attisnull.exit.i

slot_attisnull.exit.i:                            ; preds = %slot_getsomeattrs.exit.i.i, %12
  %19 = phi i32 [ %13, %12 ], [ %.pre.i, %slot_getsomeattrs.exit.i.i ]
  %20 = load ptr, ptr %11, align 8
  %21 = sext i16 %15 to i64
  %22 = getelementptr i8, ptr %20, i64 %21
  %23 = getelementptr i8, ptr %22, i64 -1
  %24 = load i8, ptr %23, align 1, !range !4, !noundef !5
  %25 = trunc nuw i8 %24 to i1
  %not..i = xor i1 %25, true
  %26 = select i1 %not..i, i1 %.0112.i, i1 false
  %indvars.iv.next.i = add nuw nsw i64 %indvars.iv.i, 1
  %27 = sext i32 %19 to i64
  %28 = icmp slt i64 %indvars.iv.next.i, %27
  br i1 %28, label %12, label %._crit_edge.loopexit.i, !llvm.loop !6

29:                                               ; preds = %._crit_edge.loopexit.i
  %.not12 = icmp eq ptr %3, null
  br i1 %.not12, label %32, label %30

30:                                               ; preds = %29
  %31 = tail call fastcc zeroext i1 @ri_KeysEqual(ptr noundef %1, ptr noundef nonnull %2, ptr noundef nonnull %3, ptr noundef nonnull %5, i1 noundef zeroext true)
  br i1 %31, label %ri_NullCheck.exit.thread, label %32

32:                                               ; preds = %30, %29
  br label %ri_NullCheck.exit.thread

ri_NullCheck.exit.thread:                         ; preds = %._crit_edge.loopexit.i, %4, %30, %32
  %.0 = phi i1 [ true, %32 ], [ false, %30 ], [ false, %4 ], [ false, %._crit_edge.loopexit.i ]
  ret i1 %.0
}